Certificate:
    Data:
        Version: 3 (0x2)
        Serial Number: 1 (0x1)
        Signature Algorithm: sha256WithRSAEncryption
        Issuer: C=CN, ST=GuangDong, L=Auto, O=Company, OU=Department, CN=CaCert
        Validity
            Not Before: May 25 09:33:42 2023 GMT
            Not After : May 22 09:33:42 2033 GMT
        Subject: C=CN, ST=GuangDong, O=Company, OU=SubDepart, CN=SubCaCert
        Subject Public Key Info:
            Public Key Algorithm: rsaEncryption
                RSA Public-Key: (2048 bit)
                Modulus:
                    00:d8:a5:d0:4b:79:3b:ff:83:01:fc:9b:e5:39:0e:
                    8c:bd:0b:da:7c:f0:b0:11:f9:a5:f2:a7:21:2e:41:
                    69:e6:94:18:57:3b:1e:1d:3d:dd:c2:ab:e3:1a:02:
                    fd:24:1e:b0:bf:cd:ca:17:db:bf:3d:8a:a3:22:2f:
                    d3:88:e9:5c:31:12:8b:bb:f0:bc:59:eb:3b:c4:3f:
                    d1:3a:b1:1c:28:7f:e7:09:89:b6:1a:27:fa:18:81:
                    a1:e3:7b:7b:ed:d3:d9:4a:28:bd:5b:50:2a:be:51:
                    e5:b8:5d:4b:4f:78:6e:7c:1c:08:07:67:3d:c6:11:
                    82:3c:06:99:e2:87:4b:14:bd:3b:8f:8d:da:f0:44:
                    ab:63:ce:63:44:de:7a:7f:74:c9:00:ab:b1:1b:e3:
                    45:7b:6b:f2:2a:4a:81:b2:6e:97:4a:c7:63:81:86:
                    df:cc:e4:b5:7e:e9:e9:af:f2:94:ea:c8:19:19:c9:
                    6f:f6:56:9c:6b:08:cd:e1:12:94:cc:2d:9d:b0:98:
                    db:24:23:39:d0:1e:eb:bb:63:40:fe:36:33:d6:a9:
                    7d:34:af:1d:1f:65:26:ca:84:c3:89:71:5f:1c:c0:
                    51:34:c1:d9:90:f1:75:56:0f:63:ab:5f:d2:30:89:
                    0b:ba:d0:c7:9e:50:c1:92:15:73:62:96:9d:73:ee:
                    32:39
                Exponent: 65537 (0x10001)
        X509v3 extensions:
            X509v3 Basic Constraints: 
                CA:FALSE
            Netscape Comment: 
                OpenSSL Generated Certificate
            X509v3 Subject Key Identifier: 
                B5:1D:F1:9E:44:FA:97:E8:A0:A1:2F:B1:B3:1A:66:CE:59:3D:68:3A
            X509v3 Authority Key Identifier: 
                keyid:99:CD:3C:4C:8C:F4:42:8F:6A:92:FF:1B:9A:B1:F4:FC:FE:7E:46:5D

    Signature Algorithm: sha256WithRSAEncryption
         09:97:fa:a1:71:57:29:86:62:23:87:2f:96:9d:a8:db:d8:9d:
         69:1a:49:9d:f2:27:34:32:a0:20:d6:68:8c:7c:64:15:99:63:
         9e:11:02:b9:ef:7d:a3:f4:a9:13:02:2b:9c:88:fb:5c:99:64:
         b4:3b:26:6d:c1:75:0d:f7:b9:e1:54:af:01:34:c1:9f:4a:da:
         01:cc:36:2a:20:d7:c4:b9:ba:51:31:f6:33:53:17:db:86:66:
         20:35:c7:a8:19:67:87:af:55:bf:0f:82:dc:fb:1e:fd:69:aa:
         ff:53:6c:1a:81:14:2a:0c:3f:2b:21:f9:e2:69:88:5c:2a:cc:
         19:d5:f4:66:d4:b7:e9:93:00:87:a9:f3:af:21:0a:f1:bd:e3:
         98:5d:94:2b:75:04:16:cb:6a:e8:e7:30:09:05:9f:89:01:a2:
         15:13:29:df:16:ce:a0:60:b7:fb:1e:76:25:4f:2d:dc:e3:8c:
         95:09:a8:07:d3:e2:ee:82:ca:dd:93:94:9f:80:ce:c5:6c:76:
         31:d4:f9:1f:64:54:53:23:6d:3c:72:75:ee:b9:86:c9:a0:8f:
         c1:0b:e9:11:fc:33:68:3f:5c:5d:83:01:fd:6c:c0:fb:a6:28:
         10:1c:f8:30:28:fa:92:d9:1d:df:89:6d:e0:60:98:d9:69:54:
         a8:1f:46:10
-----BEGIN CERTIFICATE-----
MIIDuTCCAqGgAwIBAgIBATANBgkqhkiG9w0BAQsFADBoMQswCQYDVQQGEwJDTjES
MBAGA1UECAwJR3VhbmdEb25nMQ0wCwYDVQQHDARBdXRvMRAwDgYDVQQKDAdDb21w
YW55MRMwEQYDVQQLDApEZXBhcnRtZW50MQ8wDQYDVQQDDAZDYUNlcnQwHhcNMjMw
NTI1MDkzMzQyWhcNMzMwNTIyMDkzMzQyWjBbMQswCQYDVQQGEwJDTjESMBAGA1UE
CAwJR3VhbmdEb25nMRAwDgYDVQQKDAdDb21wYW55MRIwEAYDVQQLDAlTdWJEZXBh
cnQxEjAQBgNVBAMMCVN1YkNhQ2VydDCCASIwDQYJKoZIhvcNAQEBBQADggEPADCC
AQoCggEBANil0Et5O/+DAfyb5TkOjL0L2nzwsBH5pfKnIS5BaeaUGFc7Hh093cKr
4xoC/SQesL/Nyhfbvz2KoyIv04jpXDESi7vwvFnrO8Q/0TqxHCh/5wmJthon+hiB
oeN7e+3T2UoovVtQKr5R5bhdS094bnwcCAdnPcYRgjwGmeKHSxS9O4+N2vBEq2PO
Y0Teen90yQCrsRvjRXtr8ipKgbJul0rHY4GG38zktX7p6a/ylOrIGRnJb/ZWnGsI
zeESlMwtnbCY2yQjOdAe67tjQP42M9apfTSvHR9lJsqEw4lxXxzAUTTB2ZDxdVYP
Y6tf0jCJC7rQx55QwZIVc2KWnXPuMjkCAwEAAaN7MHkwCQYDVR0TBAIwADAsBglg
hkgBhvhCAQ0EHxYdT3BlblNTTCBHZW5lcmF0ZWQgQ2VydGlmaWNhdGUwHQYDVR0O
BBYEFLUd8Z5E+pfooKEvsbMaZs5ZPWg6MB8GA1UdIwQYMBaAFJnNPEyM9EKPapL/
G5qx9Pz+fkZdMA0GCSqGSIb3DQEBCwUAA4IBAQAJl/qhcVcphmIjhy+Wnajb2J1p
Gkmd8ic0MqAg1miMfGQVmWOeEQK5732j9KkTAiuciPtcmWS0OyZtwXUN97nhVK8B
NMGfStoBzDYqINfEubpRMfYzUxfbhmYgNceoGWeHr1W/D4Lc+x79aar/U2wagRQq
DD8rIfniaYhcKswZ1fRm1LfpkwCHqfOvIQrxveOYXZQrdQQWy2ro5zAJBZ+JAaIV
EynfFs6gYLf7HnYlTy3c44yVCagH0+Lugsrdk5SfgM7FbHYx1PkfZFRTI208cnXu
uYbJoI/BC+kR/DNoP1xdgwH9bMD7pigQHPgwKPqS2R3fiW3gYJjZaVSoH0YQ
-----END CERTIFICATE-----
